	.section	__TEXT,__text,regular,pure_instructions
	.build_version macos, 10, 15	sdk_version 10, 15
	.file	1 "/Applications/Xcode.app/Contents/Developer/Toolchains/XcodeDefault.xctoolchain/usr/lib/clang/11.0.0/include/stddef.h"
	.file	2 "/Applications/Xcode.app/Contents/Developer/Toolchains/XcodeDefault.xctoolchain/usr/bin/../include/c++/v1/cstddef"
	.file	3 "/Applications/Xcode.app/Contents/Developer/Toolchains/XcodeDefault.xctoolchain/usr/lib/clang/11.0.0/include/__stddef_max_align_t.h"
	.file	4 "/Applications/Xcode.app/Contents/Developer/Platforms/MacOSX.platform/Developer/SDKs/MacOSX.sdk/usr/include/i386/_types.h"
	.file	5 "/Applications/Xcode.app/Contents/Developer/Platforms/MacOSX.platform/Developer/SDKs/MacOSX.sdk/usr/include/sys/_types/_size_t.h"
	.file	6 "/Applications/Xcode.app/Contents/Developer/Toolchains/XcodeDefault.xctoolchain/usr/bin/../include/c++/v1/cstdlib"
	.file	7 "/Applications/Xcode.app/Contents/Developer/Platforms/MacOSX.platform/Developer/SDKs/MacOSX.sdk/usr/include/stdlib.h"
	.file	8 "/Applications/Xcode.app/Contents/Developer/Platforms/MacOSX.platform/Developer/SDKs/MacOSX.sdk/usr/include/malloc/_malloc.h"
	.file	9 "/Applications/Xcode.app/Contents/Developer/Toolchains/XcodeDefault.xctoolchain/usr/bin/../include/c++/v1/stdlib.h"
	.file	10 "/Applications/Xcode.app/Contents/Developer/Platforms/MacOSX.platform/Developer/SDKs/MacOSX.sdk/usr/include/sys/_types/_int8_t.h"
	.file	11 "/Applications/Xcode.app/Contents/Developer/Toolchains/XcodeDefault.xctoolchain/usr/bin/../include/c++/v1/cstdint"
	.file	12 "/Applications/Xcode.app/Contents/Developer/Platforms/MacOSX.platform/Developer/SDKs/MacOSX.sdk/usr/include/sys/_types/_int16_t.h"
	.file	13 "/Applications/Xcode.app/Contents/Developer/Platforms/MacOSX.platform/Developer/SDKs/MacOSX.sdk/usr/include/sys/_types/_int32_t.h"
	.file	14 "/Applications/Xcode.app/Contents/Developer/Platforms/MacOSX.platform/Developer/SDKs/MacOSX.sdk/usr/include/sys/_types/_int64_t.h"
	.file	15 "/Applications/Xcode.app/Contents/Developer/Platforms/MacOSX.platform/Developer/SDKs/MacOSX.sdk/usr/include/_types/_uint8_t.h"
	.file	16 "/Applications/Xcode.app/Contents/Developer/Platforms/MacOSX.platform/Developer/SDKs/MacOSX.sdk/usr/include/_types/_uint16_t.h"
	.file	17 "/Applications/Xcode.app/Contents/Developer/Platforms/MacOSX.platform/Developer/SDKs/MacOSX.sdk/usr/include/_types/_uint32_t.h"
	.file	18 "/Applications/Xcode.app/Contents/Developer/Platforms/MacOSX.platform/Developer/SDKs/MacOSX.sdk/usr/include/_types/_uint64_t.h"
	.file	19 "/Applications/Xcode.app/Contents/Developer/Platforms/MacOSX.platform/Developer/SDKs/MacOSX.sdk/usr/include/stdint.h"
	.file	20 "/Applications/Xcode.app/Contents/Developer/Platforms/MacOSX.platform/Developer/SDKs/MacOSX.sdk/usr/include/sys/_types/_intptr_t.h"
	.file	21 "/Applications/Xcode.app/Contents/Developer/Platforms/MacOSX.platform/Developer/SDKs/MacOSX.sdk/usr/include/sys/_types/_uintptr_t.h"
	.file	22 "/Applications/Xcode.app/Contents/Developer/Platforms/MacOSX.platform/Developer/SDKs/MacOSX.sdk/usr/include/_types/_intmax_t.h"
	.file	23 "/Applications/Xcode.app/Contents/Developer/Platforms/MacOSX.platform/Developer/SDKs/MacOSX.sdk/usr/include/_types/_uintmax_t.h"
	.file	24 "/Applications/Xcode.app/Contents/Developer/Toolchains/XcodeDefault.xctoolchain/usr/bin/../include/c++/v1/cstring"
	.file	25 "/Applications/Xcode.app/Contents/Developer/Platforms/MacOSX.platform/Developer/SDKs/MacOSX.sdk/usr/include/string.h"
	.file	26 "/Applications/Xcode.app/Contents/Developer/Toolchains/XcodeDefault.xctoolchain/usr/bin/../include/c++/v1/string.h"
	.globl	__Z1fv                          ## -- Begin function _Z1fv
	.p2align	4, 0x90
__Z1fv:                                 ## @_Z1fv
Lfunc_begin0:
	.file	27 "/var/folders/gd/yyt093w94d521q2gfssh1kp40000gn/T/temp-refactored-file-28f973..cpp"
	.loc	27 7 0                          ## /var/folders/gd/yyt093w94d521q2gfssh1kp40000gn/T/temp-refactored-file-28f973..cpp:7:0
	.cfi_startproc
## %bb.0:                               ## %entry
	pushq	%rbp
	.cfi_def_cfa_offset 16
	.cfi_offset %rbp, -16
	movq	%rsp, %rbp
	.cfi_def_cfa_register %rbp
	subq	$3168, %rsp                     ## imm = 0xC60
	movq	___stack_chk_guard@GOTPCREL(%rip), %rax
	movq	(%rax), %rax
	movq	%rax, -8(%rbp)
Ltmp0:
	.loc	27 10 7 prologue_end            ## /var/folders/gd/yyt093w94d521q2gfssh1kp40000gn/T/temp-refactored-file-28f973..cpp:10:7
	leaq	-3088(%rbp), %rdi
	xorl	%esi, %esi
	movl	$1024, %edx                     ## imm = 0x400
	callq	_memset
Ltmp1:
	.loc	27 11 12                        ## /var/folders/gd/yyt093w94d521q2gfssh1kp40000gn/T/temp-refactored-file-28f973..cpp:11:12
	movl	$0, -3092(%rbp)
LBB0_1:                                 ## %for.cond
                                        ## =>This Inner Loop Header: Depth=1
Ltmp2:
	.loc	27 11 21 is_stmt 0              ## /var/folders/gd/yyt093w94d521q2gfssh1kp40000gn/T/temp-refactored-file-28f973..cpp:11:21
	cmpl	$256, -3092(%rbp)               ## imm = 0x100
Ltmp3:
	.loc	27 11 3                         ## /var/folders/gd/yyt093w94d521q2gfssh1kp40000gn/T/temp-refactored-file-28f973..cpp:11:3
	jge	LBB0_4
## %bb.2:                               ## %for.body
                                        ##   in Loop: Header=BB0_1 Depth=1
Ltmp4:
	.loc	27 12 5 is_stmt 1               ## /var/folders/gd/yyt093w94d521q2gfssh1kp40000gn/T/temp-refactored-file-28f973..cpp:12:5
	movslq	-3092(%rbp), %rax
	.loc	27 12 10 is_stmt 0              ## /var/folders/gd/yyt093w94d521q2gfssh1kp40000gn/T/temp-refactored-file-28f973..cpp:12:10
	movl	$1, -1040(%rbp,%rax,4)
	.loc	27 13 5 is_stmt 1               ## /var/folders/gd/yyt093w94d521q2gfssh1kp40000gn/T/temp-refactored-file-28f973..cpp:13:5
	movslq	-3092(%rbp), %rax
	.loc	27 13 10 is_stmt 0              ## /var/folders/gd/yyt093w94d521q2gfssh1kp40000gn/T/temp-refactored-file-28f973..cpp:13:10
	movl	$2, -2064(%rbp,%rax,4)
Ltmp5:
## %bb.3:                               ## %for.inc
                                        ##   in Loop: Header=BB0_1 Depth=1
	.loc	27 11 27 is_stmt 1              ## /var/folders/gd/yyt093w94d521q2gfssh1kp40000gn/T/temp-refactored-file-28f973..cpp:11:27
	movl	-3092(%rbp), %eax
	addl	$1, %eax
	movl	%eax, -3092(%rbp)
	.loc	27 11 3 is_stmt 0               ## /var/folders/gd/yyt093w94d521q2gfssh1kp40000gn/T/temp-refactored-file-28f973..cpp:11:3
	jmp	LBB0_1
Ltmp6:
LBB0_4:                                 ## %for.end
	.loc	27 19 97 is_stmt 1              ## /var/folders/gd/yyt093w94d521q2gfssh1kp40000gn/T/temp-refactored-file-28f973..cpp:19:97
	leaq	-1040(%rbp), %rdi
	.loc	27 19 100 is_stmt 0             ## /var/folders/gd/yyt093w94d521q2gfssh1kp40000gn/T/temp-refactored-file-28f973..cpp:19:100
	leaq	-1040(%rbp), %rsi
	.loc	27 19 114                       ## /var/folders/gd/yyt093w94d521q2gfssh1kp40000gn/T/temp-refactored-file-28f973..cpp:19:114
	leaq	-2064(%rbp), %r9
	.loc	27 19 117                       ## /var/folders/gd/yyt093w94d521q2gfssh1kp40000gn/T/temp-refactored-file-28f973..cpp:19:117
	leaq	-2064(%rbp), %rax
	.loc	27 19 131                       ## /var/folders/gd/yyt093w94d521q2gfssh1kp40000gn/T/temp-refactored-file-28f973..cpp:19:131
	leaq	-3088(%rbp), %r10
	.loc	27 19 134                       ## /var/folders/gd/yyt093w94d521q2gfssh1kp40000gn/T/temp-refactored-file-28f973..cpp:19:134
	leaq	-3088(%rbp), %r11
	.loc	27 19 3                         ## /var/folders/gd/yyt093w94d521q2gfssh1kp40000gn/T/temp-refactored-file-28f973..cpp:19:3
	xorl	%edx, %edx
	movl	$256, %ecx                      ## imm = 0x100
	movl	$1, %r8d
	movq	%rax, (%rsp)
	movq	$0, 8(%rsp)
	movq	$256, 16(%rsp)                  ## imm = 0x100
	movq	$1, 24(%rsp)
	movq	%r10, 32(%rsp)
	movq	%r11, 40(%rsp)
	movq	$0, 48(%rsp)
	movq	$256, 56(%rsp)                  ## imm = 0x100
	movq	$1, 64(%rsp)
	callq	___forloop__Users_parsabagheri_Development_llvm_project_tuner_examples_cuda_attr_test_cpp_18_3
Ltmp7:
	.loc	27 22 12 is_stmt 1              ## /var/folders/gd/yyt093w94d521q2gfssh1kp40000gn/T/temp-refactored-file-28f973..cpp:22:12
	movl	$0, -3096(%rbp)
LBB0_5:                                 ## %for.cond9
                                        ## =>This Inner Loop Header: Depth=1
Ltmp8:
	.loc	27 22 21 is_stmt 0              ## /var/folders/gd/yyt093w94d521q2gfssh1kp40000gn/T/temp-refactored-file-28f973..cpp:22:21
	cmpl	$256, -3096(%rbp)               ## imm = 0x100
Ltmp9:
	.loc	27 22 3                         ## /var/folders/gd/yyt093w94d521q2gfssh1kp40000gn/T/temp-refactored-file-28f973..cpp:22:3
	jge	LBB0_8
## %bb.6:                               ## %for.body11
                                        ##   in Loop: Header=BB0_5 Depth=1
Ltmp10:
	.loc	27 23 20 is_stmt 1              ## /var/folders/gd/yyt093w94d521q2gfssh1kp40000gn/T/temp-refactored-file-28f973..cpp:23:20
	movslq	-3096(%rbp), %rax
	movl	-3088(%rbp,%rax,4), %esi
	.loc	27 23 5 is_stmt 0               ## /var/folders/gd/yyt093w94d521q2gfssh1kp40000gn/T/temp-refactored-file-28f973..cpp:23:5
	leaq	L_.str(%rip), %rdi
	movb	$0, %al
	callq	_printf
Ltmp11:
## %bb.7:                               ## %for.inc14
                                        ##   in Loop: Header=BB0_5 Depth=1
	.loc	27 22 27 is_stmt 1              ## /var/folders/gd/yyt093w94d521q2gfssh1kp40000gn/T/temp-refactored-file-28f973..cpp:22:27
	movl	-3096(%rbp), %eax
	addl	$1, %eax
	movl	%eax, -3096(%rbp)
	.loc	27 22 3 is_stmt 0               ## /var/folders/gd/yyt093w94d521q2gfssh1kp40000gn/T/temp-refactored-file-28f973..cpp:22:3
	jmp	LBB0_5
Ltmp12:
LBB0_8:                                 ## %for.end15
	.loc	27 0 3                          ## /var/folders/gd/yyt093w94d521q2gfssh1kp40000gn/T/temp-refactored-file-28f973..cpp:0:3
	movq	-8(%rbp), %rax
	movq	___stack_chk_guard@GOTPCREL(%rip), %rcx
	movq	(%rcx), %rcx
	subq	%rax, %rcx
	jne	LBB0_9
	jmp	LBB0_10
LBB0_9:                                 ## %for.end15
	callq	___stack_chk_fail
LBB0_10:                                ## %for.end15
	.loc	27 25 1 is_stmt 1               ## /var/folders/gd/yyt093w94d521q2gfssh1kp40000gn/T/temp-refactored-file-28f973..cpp:25:1
	addq	$3168, %rsp                     ## imm = 0xC60
	popq	%rbp
	retq
Ltmp13:
Lfunc_end0:
	.cfi_endproc
                                        ## -- End function
	.globl	_main                           ## -- Begin function main
	.p2align	4, 0x90
_main:                                  ## @main
Lfunc_begin1:
	.loc	27 27 0                         ## /var/folders/gd/yyt093w94d521q2gfssh1kp40000gn/T/temp-refactored-file-28f973..cpp:27:0
	.cfi_startproc
## %bb.0:                               ## %entry
	pushq	%rbp
	.cfi_def_cfa_offset 16
	.cfi_offset %rbp, -16
	movq	%rsp, %rbp
	.cfi_def_cfa_register %rbp
	subq	$16, %rsp
	movl	%edi, -4(%rbp)
	movq	%rsi, -16(%rbp)
Ltmp14:
	.loc	27 28 3 prologue_end            ## /var/folders/gd/yyt093w94d521q2gfssh1kp40000gn/T/temp-refactored-file-28f973..cpp:28:3
	callq	__Z1fv
	.loc	27 29 1                         ## /var/folders/gd/yyt093w94d521q2gfssh1kp40000gn/T/temp-refactored-file-28f973..cpp:29:1
	xorl	%eax, %eax
	addq	$16, %rsp
	popq	%rbp
	retq
Ltmp15:
Lfunc_end1:
	.cfi_endproc
                                        ## -- End function
	.globl	___forloop__Users_parsabagheri_Development_llvm_project_tuner_examples_cuda_attr_test_cpp_18_3 ## -- Begin function __forloop__Users_parsabagheri_Development_llvm_project_tuner_examples_cuda_attr_test_cpp_18_3
	.p2align	4, 0x90
___forloop__Users_parsabagheri_Development_llvm_project_tuner_examples_cuda_attr_test_cpp_18_3: ## @__forloop__Users_parsabagheri_Development_llvm_project_tuner_examples_cuda_attr_test_cpp_18_3
Lfunc_begin2:
	.file	28 "/var/folders/gd/yyt093w94d521q2gfssh1kp40000gn/T/tmp-opt-result-file-edd63b.mlir"
	.loc	28 2 0                          ## /var/folders/gd/yyt093w94d521q2gfssh1kp40000gn/T/tmp-opt-result-file-edd63b.mlir:2:0
	.cfi_startproc
## %bb.0:
	movq	8(%rsp), %rax
	movq	48(%rsp), %rcx
	xorl	%edx, %edx
Ltmp16:
	.loc	28 6 5 prologue_end             ## /var/folders/gd/yyt093w94d521q2gfssh1kp40000gn/T/tmp-opt-result-file-edd63b.mlir:6:5
	cmpq	$255, %rdx
	jg	LBB2_3
	.p2align	4, 0x90
LBB2_2:                                 ## =>This Inner Loop Header: Depth=1
	.loc	28 7 12                         ## /var/folders/gd/yyt093w94d521q2gfssh1kp40000gn/T/tmp-opt-result-file-edd63b.mlir:7:12
	movl	(%rsi,%rdx,4), %edi
	.loc	28 9 12                         ## /var/folders/gd/yyt093w94d521q2gfssh1kp40000gn/T/tmp-opt-result-file-edd63b.mlir:9:12
	addl	(%rax,%rdx,4), %edi
	.loc	28 10 7                         ## /var/folders/gd/yyt093w94d521q2gfssh1kp40000gn/T/tmp-opt-result-file-edd63b.mlir:10:7
	movl	%edi, (%rcx,%rdx,4)
	.loc	28 6 5                          ## /var/folders/gd/yyt093w94d521q2gfssh1kp40000gn/T/tmp-opt-result-file-edd63b.mlir:6:5
	incq	%rdx
	cmpq	$255, %rdx
	jle	LBB2_2
LBB2_3:
	.loc	28 12 5                         ## /var/folders/gd/yyt093w94d521q2gfssh1kp40000gn/T/tmp-opt-result-file-edd63b.mlir:12:5
	retq
Ltmp17:
Lfunc_end2:
	.cfi_endproc
                                        ## -- End function
	.section	__TEXT,__cstring,cstring_literals
L_.str:                                 ## @.str
	.asciz	"%d\n"
